target datalayout = "e-m:e-p270:32:32-p271:32:32-p272:64:64-i64:64-i128:128-f80:128-n8:16:32:64-S128"
target triple = "x86_64-pc-linux-gnu"

%struct.hidapi_backend = type { ptr, ptr, ptr, ptr, ptr, ptr, ptr, ptr, ptr, ptr, ptr, ptr, ptr, ptr, ptr }
%struct.SDL_hid_device_info = type { ptr, i16, i16, ptr, i16, ptr, ptr, i16, i16, i32, i32, i32, i32, i32, ptr }
%struct.SDL_hid_device = type { ptr, ptr, %struct.SDL_hid_device_info }

@.str.30 = private unnamed_addr constant [15 x i8] c"Invalid device\00", align 1

; Function Attrs: nounwind uwtable
define internal void @DeleteHIDDeviceWrapper(ptr noundef %0) #0 {
  %2 = alloca ptr, align 8
  store ptr %0, ptr %2, align 8
  %3 = load ptr, ptr %2, align 8
  call void @SDL_SetObjectValid(ptr noundef %3, i32 noundef 8, i1 noundef zeroext false)
  %4 = load ptr, ptr %2, align 8
  %5 = getelementptr inbounds nuw %struct.SDL_hid_device, ptr %4, i32 0, i32 2
  %6 = getelementptr inbounds nuw %struct.SDL_hid_device_info, ptr %5, i32 0, i32 0
  %7 = load ptr, ptr %6, align 8
  call void @SDL_free_REAL(ptr noundef %7)
  %8 = load ptr, ptr %2, align 8
  %9 = getelementptr inbounds nuw %struct.SDL_hid_device, ptr %8, i32 0, i32 2
  %10 = getelementptr inbounds nuw %struct.SDL_hid_device_info, ptr %9, i32 0, i32 3
  %11 = load ptr, ptr %10, align 8
  call void @SDL_free_REAL(ptr noundef %11)
  %12 = load ptr, ptr %2, align 8
  %13 = getelementptr inbounds nuw %struct.SDL_hid_device, ptr %12, i32 0, i32 2
  %14 = getelementptr inbounds nuw %struct.SDL_hid_device_info, ptr %13, i32 0, i32 5
  %15 = load ptr, ptr %14, align 8
  call void @SDL_free_REAL(ptr noundef %15)
  %16 = load ptr, ptr %2, align 8
  %17 = getelementptr inbounds nuw %struct.SDL_hid_device, ptr %16, i32 0, i32 2
  %18 = getelementptr inbounds nuw %struct.SDL_hid_device_info, ptr %17, i32 0, i32 6
  %19 = load ptr, ptr %18, align 8
  call void @SDL_free_REAL(ptr noundef %19)
  %20 = load ptr, ptr %2, align 8
  call void @SDL_free_REAL(ptr noundef %20)
  ret void
}

; Function Attrs: nounwind uwtable
define hidden i32 @SDL_hid_close_REAL(ptr noundef %0) #0 {
  %2 = alloca i32, align 4
  %3 = alloca ptr, align 8
  store ptr %0, ptr %3, align 8
  %4 = load ptr, ptr %3, align 8
  %5 = call zeroext i1 @SDL_ObjectValid(ptr noundef %4, i32 noundef 8)
  br i1 %5, label %8, label %6

6:                                                ; preds = %1
  %7 = call zeroext i1 (ptr, ...) @SDL_SetError_REAL(ptr noundef @.str.30)
  store i32 -1, ptr %2, align 4
  br label %18

8:                                                ; preds = %1
  %9 = load ptr, ptr %3, align 8
  %10 = getelementptr inbounds nuw %struct.SDL_hid_device, ptr %9, i32 0, i32 1
  %11 = load ptr, ptr %10, align 8
  %12 = getelementptr inbounds nuw %struct.hidapi_backend, ptr %11, i32 0, i32 7
  %13 = load ptr, ptr %12, align 8
  %14 = load ptr, ptr %3, align 8
  %15 = getelementptr inbounds nuw %struct.SDL_hid_device, ptr %14, i32 0, i32 0
  %16 = load ptr, ptr %15, align 8
  call void %13(ptr noundef %16)
  %17 = load ptr, ptr %3, align 8
  call void @DeleteHIDDeviceWrapper(ptr noundef %17)
  store i32 0, ptr %2, align 4
  br label %18

18:                                               ; preds = %8, %6
  %19 = load i32, ptr %2, align 4
  ret i32 %19
}