; Function Attrs: nounwind uwtable
define hidden range(i32 -1, 1) i32 @SDL_hid_close_REAL(ptr noundef %0) local_unnamed_addr #1 {
  %2 = tail call zeroext i1 @SDL_ObjectValid(ptr noundef %0, i32 noundef 8) #22
  br i1 %2, label %5, label %3

3:                                                ; preds = %1
  %4 = tail call zeroext i1 (ptr, ...) @SDL_SetError_REAL(ptr noundef nonnull @.str.30) #22
  br label %19

5:                                                ; preds = %1
  %6 = getelementptr inbounds nuw i8, ptr %0, i64 8
  %7 = load ptr, ptr %6, align 8
  %8 = getelementptr inbounds nuw i8, ptr %7, i64 56
  %9 = load ptr, ptr %8, align 8
  %10 = load ptr, ptr %0, align 8
  tail call void %9(ptr noundef %10) #22
  tail call void @SDL_SetObjectValid(ptr noundef nonnull %0, i32 noundef 8, i1 noundef zeroext false) #22
  %11 = getelementptr inbounds nuw i8, ptr %0, i64 16
  %12 = load ptr, ptr %11, align 8
  tail call void @SDL_free_REAL(ptr noundef %12) #22
  %13 = getelementptr inbounds nuw i8, ptr %0, i64 32
  %14 = load ptr, ptr %13, align 8
  tail call void @SDL_free_REAL(ptr noundef %14) #22
  %15 = getelementptr inbounds nuw i8, ptr %0, i64 48
  %16 = load ptr, ptr %15, align 8
  tail call void @SDL_free_REAL(ptr noundef %16) #22
  %17 = getelementptr inbounds nuw i8, ptr %0, i64 56
  %18 = load ptr, ptr %17, align 8
  tail call void @SDL_free_REAL(ptr noundef %18) #22
  tail call void @SDL_free_REAL(ptr noundef nonnull %0) #22
  br label %19

19:                                               ; preds = %5, %3
  %.0 = phi i32 [ 0, %5 ], [ -1, %3 ]
  ret i32 %.0
}